(lp0
(lp1
F1.9185356073112052
aF0.21673829497986286
aI1
aa(lp2
F2.727131882079284
aF2.5366794102503802
aI0
aa(lp3
F2.79339801654073
aF2.8609293048506554
aI0
aa(lp4
F3.656719147195161
aF3.108996868631055
aI0
aa(lp5
F3.380112349687412
aF3.7050625812432596
aI0
aa(lp6
F3.3330595396342204
aF2.9118005696358753
aI0
aa(lp7
F0.41853074955954306
aF0.27061047388479864
aI1
aa(lp8
F2.883066064137428
aF2.31275100456
aI0
aa(lp9
F0.8467542015607071
aF2.042120799832224
aI1
aa(lp10
F2.2129295570271297
aF3.783774546532536
aI0
aa(lp11
F1.2383872427709393
aF0.04855823669368098
aI1
aa(lp12
F2.6106463169613887
aF2.3236060539704586
aI0
aa(lp13
F1.4191572504152916
aF0.7466035261135868
aI1
aa(lp14
F2.3787732310075724
aF1.8490347376711715
aI0
aa(lp15
F1.2280777879838505
aF1.921823390942805
aI1
aa(lp16
F1.274916773735221
aF1.370729713308998
aI1
aa(lp17
F1.0027030407983577
aF0.7576237802595595
aI1
aa(lp18
F3.156587004436758
aF2.460257858888801
aI0
aa(lp19
F1.7881671525568152
aF0.7646475823197234
aI1
aa(lp20
F3.0080376327523015
aF2.2640641384656526
aI0
aa(lp21
F0.20496975679014118
aF0.18871720391075852
aI1
aa(lp22
F3.381495193126164
aF3.026731960530589
aI0
aa(lp23
F0.9980137347515218
aF1.4841602547798898
aI1
aa(lp24
F3.093791972979924
aF4.594877971727301
aI0
aa(lp25
F3.545882952332485
aF2.920020070769596
aI0
aa(lp26
F1.5998939685662554
aF1.270382228008396
aI1
aa(lp27
F2.9350624671475862
aF2.089772402545807
aI0
aa(lp28
F3.283597366098113
aF2.8105834411890833
aI0
aa(lp29
F3.8758828866982813
aF3.3759944721935096
aI0
aa(lp30
F3.6701055877325754
aF3.133715958667168
aI0
aa(lp31
F2.930404556625712
aF2.058772857525798
aI0
aa(lp32
F1.4282901781194643
aF0.5958768461808697
aI1
aa(lp33
F0.93840095692413
aF1.2548230913282357
aI1
aa(lp34
F1.0242846064232376
aF1.3061951739902087
aI1
aa(lp35
F2.5900039494951117
aF2.9656263228276822
aI0
aa(lp36
F2.730831688903317
aF2.9658940045506124
aI0
aa(lp37
F1.0622923454242714
aF0.1429529083874539
aI1
aa(lp38
F1.229538056960713
aF0.9018063413933735
aI1
aa(lp39
F2.8199978558238934
aF3.3391679743469083
aI0
aa(lp40
F0.21713378725419685
aF1.2389282643397181
aI1
aa(lp41
F1.1362110009085666
aF-0.021617044399911967
aI1
aa(lp42
F2.5857498172423687
aF2.8275708955419776
aI0
aa(lp43
F3.408481379826331
aF2.7268957214374714
aI0
aa(lp44
F2.661331849976041
aF3.1163696038263087
aI0
aa(lp45
F2.4960978101973432
aF3.290814688303944
aI0
aa(lp46
F2.815925976476553
aF3.441028592489751
aI0
aa(lp47
F3.770396315064283
aF2.3308332088719785
aI0
aa(lp48
F3.45498111138578
aF4.069931006073782
aI0
aa(lp49
F2.9270819604175426
aF3.0510299333990196
aI0
aa(lp50
F0.06999389225335428
aF0.21472482804300552
aI1
aa(lp51
F1.092553672715079
aF1.569062304994776
aI1
aa(lp52
F-0.10584094495338481
aF1.3436720912436322
aI1
aa(lp53
F1.4224270406545798
aF0.33803504731748335
aI1
aa(lp54
F2.7487396943629427
aF2.9898013375045998
aI0
aa(lp55
F0.6609384007644554
aF0.8441110186341492
aI1
aa(lp56
F1.5447539647412798
aF0.8700933359118102
aI1
aa(lp57
F0.33665099274112464
aF0.4719448687847181
aI1
aa(lp58
F2.957599223244979
aF3.207169175314869
aI0
aa(lp59
F0.8589294397356191
aF1.1700566327278703
aI1
aa(lp60
F0.5205410983088274
aF0.7745224305456394
aI1
aa(lp61
F1.173444256314786
aF1.5125609418327928
aI1
aa(lp62
F4.077377415418017
aF3.1452856035217778
aI0
aa(lp63
F2.0028459890564445
aF3.538687474270617
aI0
aa(lp64
F3.2011909462854073
aF1.2153628520144317
aI0
aa(lp65
F0.8127202902179634
aF2.1022056316407784
aI1
aa(lp66
F1.4045005251598142
aF0.639465964254555
aI1
aa(lp67
F0.5234879364721912
aF1.0869115142921244
aI1
aa(lp68
F1.5250926657032888
aF1.2752426870850326
aI1
aa(lp69
F0.6829599142779157
aF1.346134461444404
aI1
aa(lp70
F2.598929432267175
aF2.967728951407758
aI0
aa(lp71
F1.859181604950148
aF1.0132630909454419
aI1
aa(lp72
F1.526144886050254
aF1.676228754743943
aI1
aa(lp73
F0.10555887508177852
aF0.6952753142039552
aI1
aa(lp74
F0.8122624658574198
aF1.1119436379785839
aI1
aa(lp75
F0.4815185212490213
aF0.8079331874174045
aI1
aa(lp76
F0.8676081660044859
aF1.828424518078973
aI1
aa(lp77
F2.836419075239214
aF2.8472411232554395
aI0
aa(lp78
F2.0249423980789656
aF2.551506548485548
aI0
aa(lp79
F1.6992018015361587
aF0.027942555008621306
aI1
aa(lp80
F1.2352359863793596
aF0.930821250754983
aI1
aa(lp81
F3.1353128291549663
aF3.639200304526999
aI0
aa(lp82
F2.3847319892549836
aF2.9383239969655595
aI0
aa(lp83
F0.8373633321281155
aF1.3139649514059435
aI1
aa(lp84
F3.161747901358648
aF2.9525642853348533
aI0
aa(lp85
F0.0449336499166213
aF0.43870925783339265
aI1
aa(lp86
F3.6548706066381076
aF2.561523305854815
aI0
aa(lp87
F0.44825895520079284
aF0.5303510500497638
aI1
aa(lp88
F3.1472196430496284
aF2.994188492118738
aI0
aa(lp89
F2.058270781635045
aF3.5095303901955135
aI0
aa(lp90
F2.9177780145743095
aF3.130664627036552
aI0
aa(lp91
F2.7444922873916884
aF2.7198877720972052
aI0
aa(lp92
F1.119667313221708
aF0.9603865611106931
aI1
aa(lp93
F0.8064260244409404
aF1.2259959393234012
aI1
aa(lp94
F3.0543579240398855
aF3.304172390758026
aI0
aa(lp95
F1.0020175011247814
aF0.8248735153395548
aI1
aa(lp96
F1.71394397768603
aF0.8483311901804473
aI1
aa(lp97
F2.4844856580881833
aF2.588115876443116
aI0
aa(lp98
F2.4720786265737615
aF2.047376869962468
aI0
aa(lp99
F1.7550463181881146
aF1.7212819663892058
aI1
aa(lp100
F2.440102826799376
aF2.9332808634012495
aI0
aa.