(lp0
(lp1
F-4.639664614720735
aF-0.2273440272470006
aa(lp2
F-3.6406342642756018
aF-0.12749843057561377
aa(lp3
F-8.353226305353
aF0.10704048722513831
aa(lp4
F-4.530201421842495
aF-0.21707380722995603
aa(lp5
F-8.03012425534936
aF0.11669782160662133
aa(lp6
F-2.3356903953372736
aF0.30915469734657214
aa(lp7
F-1.5579741115003625
aF0.6363939151664691
aa(lp8
F6.837394988287905
aF0.09189865236293761
aa(lp9
F-4.820931975598857
aF-0.2064105819317857
aa(lp10
F0.24992734439477537
aF0.9929084390875362
aa(lp11
F-9.000818716571306
aF0.03278865998879407
aa(lp12
F-3.759853897009142
aF-0.1380793577483364
aa(lp13
F-6.427615425449453
aF0.01919302398604311
aa(lp14
F6.47168677938922
aF0.03939796500109456
aa(lp15
F-3.527267365703139
aF-0.09755238096218424
aa(lp16
F-8.324854792820878
aF0.1014351622400724
aa(lp17
F-9.312069056259997
aF-0.00676486266633403
aa(lp18
F1.553761168276175
aF0.6376748943597828
aa(lp19
F-8.90639050565069
aF0.04942854996920441
aa(lp20
F5.284452499744059
aF-0.16098949275097227
aa(lp21
F-0.8845878233742255
aF0.8717192101395671
aa(lp22
F5.1937596563648025
aF-0.1988855035522008
aa(lp23
F2.9123426034550057
aF0.077718077667649
aa(lp24
F-9.116213990987365
aF0.0353186154081991
aa(lp25
F-1.75096417826391
aF0.5627290879069977
aa(lp26
F-6.23428409011638
aF-0.017242597348756425
aa(lp27
F8.727097847966242
aF0.08572101233711207
aa(lp28
F-5.6384973469263056
aF-0.10182048357132391
aa(lp29
F2.8654812758342434
aF0.0918677637474622
aa(lp30
F-4.310415799927236
aF-0.21399278138995173
aa(lp31
F4.374801071225946
aF-0.2003471799749386
aa(lp32
F-9.164470512403689
aF0.027376125307900644
aa(lp33
F-9.10287288929337
aF0.04093497871815616
aa(lp34
F0.8947212848555335
aF0.863246439136207
aa(lp35
F-3.3331773735924735
aF-0.0580095218155545
aa(lp36
F-0.4771797154086048
aF0.9608713310021796
aa(lp37
F6.1157735190140485
aF-0.027440372871954576
aa(lp38
F3.4112099343169326
aF-0.09632592529830945
aa(lp39
F4.842084350718421
aF-0.22214011308334625
aa(lp40
F2.2721577306394742
aF0.33806644841277855
aa(lp41
F2.733984274322271
aF0.15570458643755847
aa(lp42
F4.576470963075279
aF-0.22769658675530505
aa(lp43
F-3.1815415460735785
aF-0.0291589488406833
aa(lp44
F-6.630123468640507
aF0.052835246894220485
aa(lp45
F7.101010381570184
aF0.10999917004393983
aa(lp46
F-9.089953247694591
aF0.03103415189852543
aa(lp47
F0.1704543386910995
aF0.9983020004999484
aa(lp48
F4.686240545807658
aF-0.2250762518609905
aa(lp49
F-8.59233858575811
aF0.09192144445643677
aa(lp50
F4.319154568860885
aF-0.20939183902262423
aa(lp51
F5.488890150272027
aF-0.12255319888856399
aa(lp52
F-8.386546915025725
aF0.10321809008475158
aa(lp53
F9.00694696442335
aF0.03789619353877531
aa(lp54
F9.057423145251104
aF0.03160985890517867
aa(lp55
F1.0427905709391574
aF0.8451983937009382
aa(lp56
F-1.5115207809549176
aF0.6595392849327684
aa(lp57
F7.068343090956002
aF0.10914297746021877
aa(lp58
F-6.941474191762378
aF0.07995758642820468
aa(lp59
F7.334563819367801
aF0.13889075157619282
aa(lp60
F3.316258021569853
aF-0.04355673585178853
aa(lp61
F2.496198839452447
aF0.24911076583953
aa(lp62
F-1.2823665424956676
aF0.7332820302574962
aa(lp63
F-7.393874732540979
aF0.1283687092874861
aa(lp64
F-7.052204253033221
aF0.10302079985110843
aa(lp65
F-7.496441372014746
aF0.13240362490551705
aa(lp66
F-9.870028890336828
aF-0.044221129780553245
aa(lp67
F-7.684425478450403
aF0.14416760249080643
aa(lp68
F-7.619924178142963
aF0.12419847699564467
aa(lp69
F-1.525604980544541
aF0.6423360714510751
aa(lp70
F8.070774480432323
aF0.11591424736881913
aa(lp71
F5.429996753350224
aF-0.14022476930176206
aa(lp72
F-3.0881684805950123
aF0.034391653122146496
aa(lp73
F-4.448403674380783
aF-0.21570210621688324
aa(lp74
F-2.655720512216919
aF0.19095648586773817
aa(lp75
F-5.381021494086633
aF-0.12699699523414146
aa(lp76
F-1.775079740441189
aF0.5403926024687876
aa(lp77
F-4.606341763791136
aF-0.21073913487083934
aa(lp78
F-5.232880810773965
aF-0.16419590794813782
aa(lp79
F4.494394029838894
aF-0.21490416180423033
aa(lp80
F-7.286119426193604
aF0.10779102265643702
aa(lp81
F6.275116120429413
aF-0.0026882445745332138
aa(lp82
F-8.243667925968799
aF0.13923125535204886
aa(lp83
F1.585529685792288
aF0.6346725219245433
aa(lp84
F-7.558654263577791
aF0.11820917735874549
aa(lp85
F3.378541893015001
aF-0.07192079285381872
aa(lp86
F9.29756612384659
aF0.005146680322242622
aa(lp87
F1.451140445519064
aF0.6948020729286373
aa(lp88
F2.680626743623
aF0.16358669198055462
aa(lp89
F-8.025376804126005
aF0.1224005147154292
aa(lp90
F-9.18829169441285
aF0.022527624187884517
aa(lp91
F2.0118769948675848
aF0.455911145468474
aa(lp92
F1.7190577647269905
aF0.5742225594760668
aa(lp93
F-7.168627221927011
aF0.08832322290547914
aa(lp94
F9.50071420916747
aF-0.026219558280730963
aa(lp95
F-3.3014887731536158
aF-0.062060707778492825
aa(lp96
F-7.84975243209087
aF0.14294091310658738
aa(lp97
F-3.3505032730983064
aF-0.06493005046530478
aa(lp98
F6.37993221075461
aF0.030243887975674573
aa(lp99
F7.163596506642101
aF0.1084275693216855
aa(lp100
F-4.028592418927959
aF-0.18678857514843655
aa(lp101
F4.531758286417837
aF-0.19858067581375743
aa(lp102
F-6.002114205914884
aF-0.03499033041835419
aa(lp103
F-4.275219932040592
aF-0.2142220065061702
aa(lp104
F3.8137872101657457
aF-0.16787419166007966
aa(lp105
F-9.122794835014627
aF0.010538245348833939
aa(lp106
F2.8549467766568544
aF0.0966434203265632
aa(lp107
F0.4235436410740956
aF0.9624152564625685
aa(lp108
F9.790853448492339
aF-0.021293064702358214
aa(lp109
F2.4814450314110292
aF0.24249311380256255
aa(lp110
F8.447214637529079
aF0.11105780622482382
aa(lp111
F7.957517010264908
aF0.11559099846955773
aa(lp112
F5.426825952390455
aF-0.13757585566428038
aa(lp113
F-8.101664286868031
aF0.1200020983585534
aa(lp114
F-8.663131863998583
aF0.08905126671180737
aa(lp115
F-2.0201066761844766
aF0.455838573831264
aa(lp116
F9.068931149876736
aF0.025648769743493532
aa(lp117
F7.186649763691811
aF0.10637501218745436
aa(lp118
F-6.624052210816577
aF0.04273660685018958
aa(lp119
F-6.188614682565888
aF-0.017204328050061193
aa(lp120
F-6.768476063981847
aF0.05233442594083528
aa(lp121
F5.69815955659614
aF-0.10098187780009962
aa(lp122
F9.921054164463058
aF-0.04612081898765964
aa(lp123
F-4.200668524747641
aF-0.2016579351862216
aa(lp124
F5.235675398451242
aF-0.1676339665659561
aa(lp125
F-9.667622567147891
aF-0.024111083111689795
aa(lp126
F-0.6008632887431631
aF0.9464050354738299
aa(lp127
F2.4444638164255394
aF0.2579801190237219
aa(lp128
F7.023915769997068
aF0.08131452219059725
aa(lp129
F1.2414357125076876
aF0.7594612812586637
aa(lp130
F6.705895427035095
aF0.07135309048094192
aa(lp131
F9.225233679102725
aF0.02408835278112205
aa(lp132
F-8.266025277042656
aF0.10164702801492892
aa(lp133
F3.0200043011282762
aF0.048285328530244684
aa(lp134
F5.465598174360405
aF-0.12509043759245148
aa(lp135
F7.574402721976405
aF0.12097794724798616
aa(lp136
F-0.8601076850649463
aF0.8756706320358736
aa(lp137
F-0.18638571079703503
aF1.0022108474031124
aa(lp138
F4.201695634082295
aF-0.21531408630759927
aa(lp139
F-0.40108083419861273
aF0.9647966403092988
aa(lp140
F-1.43625373776098
aF0.6996156022275893
aa(lp141
F1.2295477131561015
aF0.7716921487985526
aa(lp142
F3.4304535281888686
aF-0.097364385556928
aa(lp143
F3.533589325063298
aF-0.10860661536765688
aa(lp144
F-8.180645055068222
aF0.1180058041256765
aa(lp145
F0.06161747349788804
aF1.0118585444983317
aa(lp146
F5.348842057140239
aF-0.14821580071963497
aa(lp147
F6.469093729647987
aF0.04023148970407392
aa(lp148
F5.539898753083621
aF-0.12744804314632013
aa(lp149
F-4.964085624884376
aF-0.19524514706867327
aa(lp150
F8.533016808308254
aF0.10857218962531714
aa(lp151
F-4.091140651266231
aF-0.2035449940266339
aa(lp152
F-1.6921977878087873
aF0.5770777326169856
aa(lp153
F-4.830432813607734
aF-0.22177607789323756
aa(lp154
F5.0004034166646925
aF-0.20985125350878564
aa(lp155
F-9.263869207019042
aF0.030287365049294072
aa(lp156
F4.074319927479788
aF-0.20166760869899444
aa(lp157
F-0.038746073019801486
aF0.9943848757339473
aa(lp158
F8.33144348725784
aF0.11364325529948593
aa(lp159
F9.979953147386599
aF-0.05316689599557941
aa(lp160
F6.916100303524015
aF0.09937965957409892
aa(lp161
F-8.221070839875416
aF0.10126950813962686
aa(lp162
F-4.703594851670743
aF-0.20293908849813436
aa(lp163
F6.791068027646354
aF0.07486619160838523
aa(lp164
F-8.752145817870485
aF0.08426567691503092
aa(lp165
F4.78411060569192
aF-0.21843326686296607
aa(lp166
F-7.329257415479297
aF0.12540906439185068
aa(lp167
F7.024250057977483
aF0.10393206358969591
aa(lp168
F-8.06457682438509
aF0.128519181334174
aa(lp169
F-7.148493251577188
aF0.10365678414252406
aa(lp170
F5.9594993169882216
aF-0.04305208153154453
aa(lp171
F2.0764414320140645
aF0.4182249375527832
aa(lp172
F-3.632062808830428
aF-0.11941038854352776
aa(lp173
F0.4567118818519038
aF0.9610433504806488
aa(lp174
F-5.169644771788424
aF-0.18315299587650755
aa(lp175
F3.4740985626071215
aF-0.10899203881908776
aa(lp176
F7.718265538598338
aF0.12148817769928218
aa(lp177
F-1.4628957414898132
aF0.6701468273991319
aa(lp178
F1.832783489251284
aF0.5114266173984743
aa(lp179
F-2.1008199265003054
aF0.4339350263406832
aa(lp180
F-1.5319773316368988
aF0.6610778949962711
aa(lp181
F-3.8795919514524657
aF-0.1780792365278115
aa(lp182
F-4.389014350854639
aF-0.19979838909519984
aa(lp183
F-2.3867635930041464
aF0.30108407650607966
aa(lp184
F-1.2272008596479367
aF0.7726926684583607
aa(lp185
F-4.899725294389157
aF-0.19798480614424055
aa(lp186
F9.148046725108387
aF0.03463111914486331
aa(lp187
F1.2684057262892523
aF0.7402343944759571
aa(lp188
F-6.742028143509913
aF0.07005549880978085
aa(lp189
F9.885530851703216
aF-0.029119611618374508
aa(lp190
F0.5580762444372418
aF0.9589725816857742
aa(lp191
F8.336942596729088
aF0.11337526951494882
aa(lp192
F-4.719089926782745
aF-0.22400941765663243
aa(lp193
F-3.4291697833987245
aF-0.08426453772487512
aa(lp194
F-7.846287859908219
aF0.12341363622068124
aa(lp195
F-2.9552740134801736
aF0.06049558601424848
aa(lp196
F-3.693342135245956
aF-0.1523969872380994
aa(lp197
F-9.902424868915784
aF-0.046777686102049396
aa(lp198
F-1.875705688295639
aF0.5157459136423564
aa(lp199
F-0.5787774303387998
aF0.9587853680031408
aa(lp200
F7.424600314080035
aF0.12852724677957472
aa(lp201
F-4.261041604939637
aF-0.20804788894441129
aa(lp202
F3.0111037231721394
aF0.03182823934865219
aa(lp203
F-7.785830245554106
aF0.13501873581124108
aa(lp204
F0.9990209076207357
aF0.8433026227355861
aa(lp205
F6.23580260294457
aF0.0004113323272822251
aa(lp206
F-1.415464537881462
aF0.6995846232221049
aa(lp207
F4.430633416167817
aF-0.2417660773474266
aa(lp208
F8.93802782067701
aF0.04528902523230631
aa(lp209
F-1.9987071388076494
aF0.4442009731091091
aa(lp210
F3.8590124231550504
aF-0.18216419771513748
aa(lp211
F0.6874058464527906
aF0.9148643863234237
aa(lp212
F0.23232024486412683
aF0.9868715682648722
aa(lp213
F-1.8691112080341838
aF0.5077716861478193
aa(lp214
F7.811760557746297
aF0.13463774710233928
aa(lp215
F-5.034930236190551
aF-0.18790847398354302
aa(lp216
F4.259544185897813
aF-0.21412831481819694
aa(lp217
F6.740284023010858
aF0.054877642282640665
aa(lp218
F4.405916240848812
aF-0.21943149229233117
aa(lp219
F8.033852793750995
aF0.10117110793478523
aa(lp220
F7.474260347025126
aF0.13395389830273513
aa(lp221
F-4.434906755767298
aF-0.21579520622106238
aa(lp222
F5.087793775225959
aF-0.1741695693656553
aa(lp223
F-6.213547229285461
aF-0.010185638237578579
aa(lp224
F-3.4686877627645885
aF-0.10675498808356731
aa(lp225
F-7.369307767774331
aF0.11175631915004308
aa(lp226
F2.382502743928212
aF0.29683070491992936
aa(lp227
F9.690878310518091
aF-0.031803813163938856
aa(lp228
F-7.993650937898429
aF0.111657488094792
aa(lp229
F-1.765264443245112
aF0.5657646889193145
aa(lp230
F-3.248892135175973
aF-0.029017790717192286
aa(lp231
F-1.1171067350103172
aF0.8248743941755434
aa(lp232
F-0.8240426883454752
aF0.8838895677707864
aa(lp233
F-3.5355545132261623
aF-0.09588489673191677
aa(lp234
F3.4679430747376028
aF-0.08438855265429007
aa(lp235
F6.207820889098887
aF-0.011004271774738745
aa(lp236
F4.848821120860006
aF-0.20551543953811716
aa(lp237
F4.767242981288039
aF-0.21841123049138747
aa(lp238
F-6.468564905086751
aF0.02108327817780995
aa(lp239
F0.2718764599294552
aF0.9906481319095043
aa(lp240
F9.571658367298749
aF-0.013791607572303211
aa(lp241
F-8.24082521717316
aF0.1249228605301202
aa(lp242
F-0.07771958807941814
aF1.0000918604095659
aa(lp243
F6.20851866947385
aF-0.024906391110502024
aa(lp244
F8.055125378538296
aF0.13237123340713422
aa(lp245
F9.125798902274894
aF0.017074845420069873
aa(lp246
F9.891866647272437
aF-0.04086727536059865
aa(lp247
F-2.0714667265859337
aF0.4121206018515317
aa(lp248
F6.904755502719961
aF0.07880237814701707
aa(lp249
F-5.544861457627657
aF-0.11270705762835546
aa(lp250
F-8.743310953791724
aF0.04825251673861129
aa(lp251
F1.7003174252105744
aF0.5808359076960221
aa(lp252
F1.0432824256790258
aF0.8301079859005511
aa(lp253
F-0.9501726206020429
aF0.8587559857140753
aa(lp254
F-3.567041943379552
aF-0.10476462270155606
aa(lp255
F-6.392799178823683
aF0.012110112219941504
aa(lp256
F9.922845689314105
aF-0.04318910358232697
aa(lp257
F1.5181250532612154
aF0.682691311309537
aa(lp258
F6.2151986234879715
aF-0.013575701247378193
aa(lp259
F-4.519072720631538
aF-0.20011681648377888
aa(lp260
F5.211853027117481
aF-0.18438558710445901
aa(lp261
F8.151690142330892
aF0.11870284737944417
aa(lp262
F0.2964008108271017
aF0.9805926707817803
aa(lp263
F5.357895883726416
aF-0.1570358808518787
aa(lp264
F-7.600007885134577
aF0.12482575625166108
aa(lp265
F2.4725912713451983
aF0.24791325857690996
aa(lp266
F3.2250635052431615
aF-0.025315777182975008
aa(lp267
F4.61959089752038
aF-0.21249455751881782
aa(lp268
F0.6224601632412856
aF0.957388185672491
aa(lp269
F-2.841326696446038
aF0.10296023341175062
aa(lp270
F0.9119870454025119
aF0.8831709374720921
aa(lp271
F2.120132080059742
aF0.4046369754492684
aa(lp272
F2.3152730911403125
aF0.298959078288792
aa(lp273
F-7.311596818495643
aF0.1373492240835437
aa(lp274
F-1.597194184473011
aF0.6194375563366573
aa(lp275
F1.5898583101665675
aF0.6344088949914634
aa(lp276
F4.702218799697743
aF-0.21183944025523518
aa(lp277
F-6.90606648616418
aF0.0805335075398316
aa(lp278
F-8.958174088615877
aF0.04359248297126022
aa(lp279
F4.012106070181217
aF-0.19709262740062994
aa(lp280
F8.536441373387937
aF0.10807844529956799
aa(lp281
F3.7864366913144725
aF-0.16228017915454385
aa(lp282
F7.315125846572567
aF0.11695299830282081
aa(lp283
F-3.2577997172426176
aF-0.05103934962139195
aa(lp284
F2.192347621584707
aF0.3601401206986275
aa(lp285
F5.740118596059178
aF-0.09018580543690577
aa(lp286
F-6.862454673702283
aF0.07014971959309631
aa(lp287
F-6.878038289400195
aF0.08023125687632303
aa(lp288
F3.5513820819742197
aF-0.10727318287064576
aa(lp289
F-5.321838684890614
aF-0.15086378832782074
aa(lp290
F1.0200967804142298
aF0.8325771864362465
aa(lp291
F-5.404116587952961
aF-0.1415262006023606
aa(lp292
F5.538386932388741
aF-0.12780905688436103
aa(lp293
F-4.000694987834599
aF-0.1825475538636439
aa(lp294
F8.26465479077142
aF0.11732563769699861
aa(lp295
F5.327517061863711
aF-0.15265147618187624
aa(lp296
F-6.336390532581191
aF-0.002733391898874834
aa(lp297
F6.6439781487294205
aF0.053460633205006554
aa(lp298
F-1.3322525245333399
aF0.72128754615673
aa(lp299
F-1.5012581161637701
aF0.6566790930601296
aa(lp300
F-3.247616993403719
aF-0.03946548161799775
aa(lp301
F2.466947222273131
aF0.23436163193083082
aa(lp302
F-1.3646947102873455
aF0.7194053090729198
aa(lp303
F9.923006739528649
aF-0.04680956295125288
aa(lp304
F-4.40253260159203
aF-0.22068903578193683
aa(lp305
F-4.587495456583726
aF-0.20521516110460505
aa(lp306
F2.9262883661797563
aF0.07740046472768708
aa(lp307
F-2.5872152386831093
aF0.19691940235554398
aa(lp308
F-3.90063380622453
aF-0.1762437238079876
aa(lp309
F-7.01999556271452
aF0.09438511769280432
aa(lp310
F-3.2216271830625587
aF-0.04178267838289782
aa(lp311
F-1.7247187840713316
aF0.5685634396372408
aa(lp312
F-6.379830229081172
aF0.01204436496202203
aa(lp313
F4.181661394634935
aF-0.21341149511714216
aa(lp314
F-4.802483174447958
aF-0.21755661536958126
aa(lp315
F-2.076717796135208
aF0.4283552678714261
aa(lp316
F6.129223920310746
aF-0.03072756601018369
aa(lp317
F-9.292742553788386
aF0.02606680522146638
aa(lp318
F2.6809291333293714
aF0.1700295534050764
aa(lp319
F-6.121112943512273
aF-0.018585264554071827
aa(lp320
F3.2590953389813
aF-0.04276562881506133
aa(lp321
F-1.9222125470024398
aF0.4826024458648777
aa(lp322
F-0.6825490223518074
aF0.9149388220910998
aa(lp323
F9.164968234138634
aF0.02889462065418314
aa(lp324
F-2.1268543145859997
aF0.3962886906530241
aa(lp325
F4.373438589974674
aF-0.22357271596059167
aa(lp326
F5.29618449856385
aF-0.15218934412022742
aa(lp327
F3.388999498012222
aF-0.04807464181567263
aa(lp328
F5.31910353584523
aF-0.1690339303036951
aa(lp329
F-9.172160695321754
aF0.03686750415678199
aa(lp330
F0.8360748667367535
aF0.8822053621570315
aa(lp331
F-3.6344722087788472
aF-0.1335391152767545
aa(lp332
F5.531922683092066
aF-0.12352864109170136
aa(lp333
F-3.054413104803684
aF0.033387227307221934
aa(lp334
F-3.5917866282947024
aF-0.1358351203383776
aa(lp335
F4.661287322978227
aF-0.2126718390371932
aa(lp336
F-8.886744487079678
aF0.05922597941198445
aa(lp337
F-4.685236815794884
aF-0.21520808630724786
aa(lp338
F-7.907198394549136
aF0.11520009191936408
aa(lp339
F7.319816656783264
aF0.11886175808062378
aa(lp340
F-7.981027216986078
aF0.10348592735515946
aa(lp341
F4.4914302865458815
aF-0.2258882117131093
aa(lp342
F-3.55014947189434
aF-0.09876885660458806
aa(lp343
F5.726016909767644
aF-0.09835402981980003
aa(lp344
F-0.6781594174194403
aF0.9393637953690944
aa(lp345
F4.555232169299089
aF-0.20609704456650027
aa(lp346
F-3.50721566512272
aF-0.09516666242165638
aa(lp347
F-1.9241406647974273
aF0.47967298669647196
aa(lp348
F2.561898494442712
aF0.21516574145589873
aa(lp349
F2.9584909540773925
aF0.04804128242658801
aa(lp350
F7.559874445716751
aF0.1211677381365615
aa(lp351
F-1.1194233696039362
aF0.8162146268528937
aa(lp352
F3.938603856010449
aF-0.1693479941454118
aa(lp353
F-6.0010644398396735
aF-0.05128346556058369
aa(lp354
F7.865428673363692
aF0.1390230911662893
aa(lp355
F-6.213499312668835
aF-0.012175817107118243
aa(lp356
F5.642996197426626
aF-0.09538622327427848
aa(lp357
F9.017217632203543
aF0.05151570519832087
aa(lp358
F-9.432387956098866
aF0.0040857696311049334
aa(lp359
F8.240830748048747
aF0.10715967544469139
aa(lp360
F-9.903010209670661
aF-0.03289875300330088
aa(lp361
F7.1823388008719675
aF0.11159841487391013
aa(lp362
F7.093971321263865
aF0.09995991311378279
aa(lp363
F0.8193615608623475
aF0.9090976514641392
aa(lp364
F6.285543821370055
aF-0.014372234760204232
aa(lp365
F6.4084140297006655
aF0.013039467188246504
aa(lp366
F-1.68581232309376
aF0.5914715404734752
aa(lp367
F6.024047548314197
aF-0.029256244363818837
aa(lp368
F3.56919608833212
aF-0.12325603824764725
aa(lp369
F-3.326268372142282
aF-0.055601785498201335
aa(lp370
F-8.010145745210364
aF0.14453534225888998
aa(lp371
F8.303693442936343
aF0.10921273678665258
aa(lp372
F-9.487829332374142
aF-0.007194627462563831
aa(lp373
F4.555122064254508
aF-0.23100101461330616
aa(lp374
F-7.859275826906888
aF0.10861075170989822
aa(lp375
F3.056978265541936
aF0.04331543316381605
aa(lp376
F9.289142612968728
aF0.0299022067373242
aa(lp377
F3.7212309436594992
aF-0.15773185656565544
aa(lp378
F-2.5283115744938156
aF0.22349887545768307
aa(lp379
F0.8318960615805508
aF0.8871645834482061
aa(lp380
F-0.6803334609756728
aF0.9108541354604259
aa(lp381
F5.046963026293497
aF-0.17689718685909955
aa(lp382
F0.035521157370945744
aF1.0070316739294245
aa(lp383
F-1.155041221156786
aF0.7966746531217901
aa(lp384
F7.143009720157455
aF0.10164921438218258
aa(lp385
F-1.2315910411311535
aF0.7519820830474896
aa(lp386
F-5.212076828275023
aF-0.17738490670847473
aa(lp387
F-2.72371250496165
aF0.14277893433863387
aa(lp388
F-2.868659350093667
aF0.10057470144323341
aa(lp389
F-1.4058697497066763
aF0.7078976249272448
aa(lp390
F-0.7992147789914483
aF0.8930392519699004
aa(lp391
F8.222754138326227
aF0.11069891442454638
aa(lp392
F2.061468698459187
aF0.42654973737059204
aa(lp393
F1.6462124909043911
aF0.6129990623932743
aa(lp394
F2.3674650533676527
aF0.2986020489869551
aa(lp395
F1.863591516337575
aF0.5234767462846494
aa(lp396
F0.4768699575191704
aF0.9648583770470314
aa(lp397
F-5.393005653040033
aF-0.1507300046909194
aa(lp398
F-2.1749743213417894
aF0.3826375061015856
aa(lp399
F4.767647202594338
aF-0.18005051069289915
aa(lp400
F-8.34403655869105
aF0.10852823498308863
aa(lp401
F4.681140103269257
aF-0.1994791215574059
aa(lp402
F-5.249083904741445
aF-0.15396724197107403
aa(lp403
F8.474975488550957
aF0.08779273553530616
aa(lp404
F-8.983029157287374
aF0.045940305852312485
aa(lp405
F-3.7940291916739337
aF-0.1598428804184441
aa(lp406
F3.8333425199772755
aF-0.1708004808028267
aa(lp407
F3.72331541761422
aF-0.15487293904955152
aa(lp408
F-7.7522131451043075
aF0.13166146289948083
aa(lp409
F-9.37776890800733
aF0.017495151644331138
aa(lp410
F3.593632669309848
aF-0.14118889026815812
aa(lp411
F-7.779473372335883
aF0.12572949242688333
aa(lp412
F-7.450625721571072
aF0.09720017153038563
aa(lp413
F-5.11513516620955
aF-0.17704958348398186
aa(lp414
F4.2199091599375915
aF-0.20937785076575163
aa(lp415
F1.9239622890935522
aF0.47280875086106444
aa(lp416
F5.485653874736675
aF-0.14220954193699517
aa(lp417
F7.388605936337701
aF0.13066084824091045
aa(lp418
F9.35972903536393
aF-0.006296967387846151
aa(lp419
F-3.675007908785548
aF-0.1572304417725587
aa(lp420
F3.352432832285965
aF-0.04168022232703096
aa(lp421
F-3.8751756024740214
aF-0.1849990552443641
aa(lp422
F7.615303037785143
aF0.11530447643551923
aa(lp423
F0.3935324779983258
aF0.98576097460513
aa(lp424
F5.645316067798516
aF-0.11206267220387912
aa(lp425
F-3.6926197702709445
aF-0.1379581176796734
aa(lp426
F4.472904544126518
aF-0.20623193735515324
aa(lp427
F1.2566141299461648
aF0.7566940027467478
aa(lp428
F-3.5017082492515916
aF-0.11421793788845408
aa(lp429
F-7.791121013488493
aF0.132087987516581
aa(lp430
F-4.638117898105643
aF-0.22310930614996266
aa(lp431
F-8.194027931322719
aF0.10656670659461537
aa(lp432
F-0.481515083239227
aF0.9516540698023894
aa(lp433
F-0.5786865142550486
aF0.9561030725665176
aa(lp434
F-5.197291843538312
aF-0.17538324654366072
aa(lp435
F-1.4341576020474847
aF0.6800780411940516
aa(lp436
F-3.939779648247585
aF-0.19478394981840805
aa(lp437
F7.856846547942869
aF0.11743009707250482
aa(lp438
F-1.0464301157788913
aF0.8339520665863828
aa(lp439
F8.254153824319634
aF0.11874861119346045
aa(lp440
F-7.481992118716696
aF0.10461505594630802
aa(lp441
F-3.950779163976417
aF-0.17826061287673342
aa(lp442
F5.429385984854289
aF-0.14430457152127565
aa(lp443
F-6.621390913048064
aF0.04635082798271631
aa(lp444
F-3.3461819757151146
aF-0.05588807445742987
aa(lp445
F3.751094389126667
aF-0.1603163562964517
aa(lp446
F8.143331143524833
aF0.11049455753848578
aa(lp447
F2.619029721548001
aF0.18111800692548086
aa(lp448
F-5.246895121267141
aF-0.1656910054183191
aa(lp449
F-6.166811126568779
aF-0.0007885174830797419
aa(lp450
F-5.664280629923047
aF-0.12141663652563031
aa(lp451
F9.572227618718635
aF-0.007811065597998923
aa(lp452
F-9.141201686805879
aF0.025232060952729014
aa(lp453
F-7.4062295205819755
aF0.11078106444586008
aa(lp454
F-6.068165209903816
aF-0.05264602038440308
aa(lp455
F-0.5464501509198385
aF0.9479059130296649
aa(lp456
F7.8575817281634315
aF0.12517170311367543
aa(lp457
F1.3080656403586737
aF0.7422567299239159
aa(lp458
F-9.873501633577302
aF-0.04083871271145209
aa(lp459
F-4.714530784388849
aF-0.1917694999011028
aa(lp460
F7.191232200784498
aF0.11092624337072161
aa(lp461
F8.5137711068731
aF0.0839340501784856
aa(lp462
F3.806759266871083
aF-0.16182078480421888
aa(lp463
F-6.463035773296282
aF0.018381040064735323
aa(lp464
F6.83962622411314
aF0.08456139057036134
aa(lp465
F7.0432952855485595
aF0.0960550092355817
aa(lp466
F6.474926282558101
aF0.009999624361710268
aa(lp467
F8.238252526440249
aF0.09422440344364325
aa(lp468
F1.8080802856655893
aF0.5299107649997786
aa(lp469
F4.289404876556983
aF-0.21218943814847732
aa(lp470
F-0.7423449126597141
aF0.8965862083050692
aa(lp471
F5.8282016924332325
aF-0.06835534651912664
aa(lp472
F3.298270098073921
aF-0.05350140000081803
aa(lp473
F-2.584494755694042
aF0.19285176633134224
aa(lp474
F8.135144196181948
aF0.1364352080869739
aa(lp475
F3.5928216513840034
aF-0.12961842678297503
aa(lp476
F-3.382124838717619
aF-0.06667622006106119
aa(lp477
F1.2377695719268509
aF0.7777702523566923
aa(lp478
F-7.216057657639514
aF0.1035535268375845
aa(lp479
F-7.139507551114992
aF0.10336895070488628
aa(lp480
F-2.945228510694422
aF0.051454139320687806
aa(lp481
F-2.1936441788610743
aF0.35969487402240913
aa(lp482
F7.707839800864534
aF0.1420400518153411
aa(lp483
F-9.170223989147665
aF0.03933472496519425
aa(lp484
F-6.412562127254895
aF0.009780422266145885
aa(lp485
F-0.13661253409412666
aF1.0039106159880018
aa(lp486
F6.671609197686539
aF0.059459189770222486
aa(lp487
F-2.59630843928663
aF0.19097677083047707
aa(lp488
F-2.415248277388125
aF0.2950350474572617
aa(lp489
F-8.723913542301421
aF0.08048732688287066
aa(lp490
F3.9559796721859755
aF-0.17810506411631333
aa(lp491
F-1.3866228250897272
aF0.7028016960915114
aa(lp492
F8.725279519670558
aF0.06322928471771899
aa(lp493
F0.06007122838781065
aF0.9923637691841424
aa(lp494
F-5.878582805575658
aF-0.07661463591319514
aa(lp495
F-6.3467158490866264
aF0.011658207327254255
aa(lp496
F8.603889463041913
aF0.07455204890269232
aa(lp497
F9.0591885717166
aF0.02544988232301746
aa(lp498
F1.608243127549704
aF0.6287558506301372
aa(lp499
F-9.146931730950632
aF0.026417461654357738
aa(lp500
F-0.3445912093001997
aF0.9730611836751802
aa(lp501
F-5.582246929073813
aF-0.10779790883353471
aa(lp502
F3.831737836274158
aF-0.1590573656611101
aa(lp503
F9.04658167637588
aF0.029470628263126658
aa(lp504
F1.5213313180393229
aF0.6577801616598655
aa(lp505
F-8.577147732369179
aF0.08373663633108282
aa(lp506
F-6.609583182009338
aF0.04681539372998365
aa(lp507
F-2.424661327607107
aF0.2729042108431509
aa(lp508
F5.59271270190391
aF-0.1105487164427003
aa(lp509
F-0.7184118860078925
aF0.926655183102765
aa(lp510
F3.144990138286012
aF-0.0017056908700770752
aa(lp511
F-5.651417922755561
aF-0.09471481640410755
aa(lp512
F-6.1429249316875545
aF-0.005195933176766327
aa(lp513
F-8.304573619930943
aF0.09183401685039805
aa(lp514
F-1.8791902042427662
aF0.5227951397982256
aa(lp515
F3.106237122051411
aF0.02532075594397206
aa(lp516
F-0.5901704375452645
aF0.9360095614139233
aa(lp517
F1.3955204048949348
aF0.710116976891077
aa(lp518
F-7.891256207847633
aF0.13650063250822944
aa(lp519
F1.3087431783183963
aF0.7385860386980403
aa(lp520
F-4.63864350766388
aF-0.19804994615510704
aa(lp521
F6.251440858823713
aF0.0007665552136183135
aa(lp522
F4.866059316075141
aF-0.19864175107170276
aa(lp523
F8.885892914194802
aF0.05241210326478795
aa(lp524
F3.117014592885699
aF0.018677166785975037
aa(lp525
F1.369365251518591
aF0.7168263173408298
aa(lp526
F-5.95387574689584
aF-0.055190154762139086
aa(lp527
F9.18298005159745
aF0.023869868213169967
aa(lp528
F-0.7273329672095876
aF0.8991309913507312
aa(lp529
F6.738340925613112
aF0.07887958605951043
aa(lp530
F4.844426016051566
aF-0.20757101653488783
aa(lp531
F3.280297651370086
aF-0.039877956408737515
aa(lp532
F-0.23396751084454692
aF0.990598548549472
aa(lp533
F9.513962563586944
aF-0.02290186187386062
aa(lp534
F0.35476589334549224
aF0.9744616638818359
aa(lp535
F-7.848936808112727
aF0.11685431444687117
aa(lp536
F5.9185933984925665
aF-0.06493286576432507
aa(lp537
F-3.109565777848429
aF0.006631052230754204
aa(lp538
F-8.09927845443898
aF0.1368309869314626
aa(lp539
F-4.532892612787607
aF-0.21783724207498165
aa(lp540
F0.4433798468759793
aF0.9830151707084095
aa(lp541
F-0.22680351680812194
aF0.987122743270214
aa(lp542
F7.5515424225501135
aF0.1342622388839142
aa(lp543
F1.8227762606568554
aF0.5446498513510027
aa(lp544
F-6.173033340901519
aF-0.021724591098067618
aa(lp545
F9.831318050013586
aF-0.04764496578251534
aa(lp546
F3.771846204733327
aF-0.15842971657107285
aa(lp547
F7.730317257520689
aF0.13297876770498473
aa(lp548
F2.678421829004874
aF0.16620549519814642
aa(lp549
F-7.003521092101779
aF0.09905237957318747
aa(lp550
F5.136155996734752
aF-0.17528799608700968
aa(lp551
F2.1405514048900223
aF0.38231561599267866
aa(lp552
F-3.5371192367063564
aF-0.11142645732426104
aa(lp553
F3.754219371563279
aF-0.1632497910114023
aa(lp554
F7.623357108233414
aF0.12814185944820422
aa(lp555
F0.05402637023530765
aF0.9976509246756006
aa(lp556
F1.4806818309742464
aF0.66967815571316
aa(lp557
F5.556058648365196
aF-0.13578272929821736
aa(lp558
F1.1556448978624267
aF0.8038802586594854
aa(lp559
F1.060773962249284
aF0.8263806792933572
aa(lp560
F8.422059759479055
aF0.0989852242487504
aa(lp561
F8.156078910791159
aF0.10751922907315266
aa(lp562
F-6.69634522752361
aF0.06973439152487887
aa(lp563
F-2.256435546598585
aF0.3336976065141169
aa(lp564
F9.977512540995573
aF-0.04020637774736095
aa(lp565
F8.55714390715072
aF0.08995865321347682
aa(lp566
F-4.770628654413227
aF-0.22832219291763087
aa(lp567
F7.356936995514719
aF0.14104632608703893
aa(lp568
F-0.8539351161917992
aF0.8775743964639183
aa(lp569
F-4.241130686389807
aF-0.22908583755765063
aa(lp570
F-0.21430717704299695
aF0.9930340772774492
aa(lp571
F0.8910813785555476
aF0.8622700484944622
aa(lp572
F-0.2038123044217084
aF0.9807863900853042
aa(lp573
F-7.423012807861678
aF0.13193243226847576
aa(lp574
F4.7632059808898966
aF-0.2157012493152118
aa(lp575
F-8.880739914632114
aF0.06508695276671429
aa(lp576
F4.87313662399572
aF-0.2076168320292608
aa(lp577
F0.34090526747160865
aF0.9931989704875623
aa(lp578
F-5.061564932434437
aF-0.1861280698758666
aa(lp579
F0.7121147786753372
aF0.915258796781762
aa(lp580
F6.809523950836496
aF0.07091200167305943
aa(lp581
F2.3296076109212507
aF0.30992605237191084
aa(lp582
F9.94088157633609
aF-0.05326494168721767
aa(lp583
F-8.698198153789702
aF0.07699902423760176
aa(lp584
F8.075900585611752
aF0.11377020223341837
aa(lp585
F3.995997293200599
aF-0.17306968633567565
aa(lp586
F6.430879740114911
aF0.011896156508778016
aa(lp587
F-3.9279243691622074
aF-0.19196761083448508
aa(lp588
F-8.215918098345513
aF0.11350153875760516
aa(lp589
F-6.172165225490456
aF-0.023940140759874787
aa(lp590
F2.2764748839440223
aF0.32082879286561033
aa(lp591
F-1.5327415855295001
aF0.6648042049633466
aa(lp592
F1.8700882601190987
aF0.5153776930592714
aa(lp593
F6.139492769444381
aF-0.021164323976680388
aa(lp594
F-8.686755889409376
aF0.06493464270295915
aa(lp595
F0.06646527999947871
aF1.0134468356215822
aa(lp596
F5.722398410784212
aF-0.09058406360433519
aa(lp597
F5.738632396725835
aF-0.0903421346468742
aa(lp598
F-0.36374521243693003
aF0.987910094328983
aa(lp599
F-1.8529248503334337
aF0.5278173762829451
aa(lp600
F-9.988557255231816
aF-0.044737175522173045
aa(lp601
F-9.794387191725992
aF-0.03424629555314153
aa(lp602
F4.712030662623839
aF-0.21030577278805238
aa(lp603
F3.1263010170151784
aF0.020471853078722877
aa(lp604
F2.8080986758615474
aF0.1311408162482574
aa(lp605
F4.670803734200328
aF-0.2070990824890258
aa(lp606
F1.767675764116838
aF0.548877736435361
aa(lp607
F3.7036938047013575
aF-0.1576129111092857
aa(lp608
F5.65712962345904
aF-0.09230045600516958
aa(lp609
F8.76945725790046
aF0.06485238223211492
aa(lp610
F7.841823848246591
aF0.1368403566710471
aa(lp611
F-7.514635012344277
aF0.12170863475501001
aa(lp612
F1.9767302265962812
aF0.4783648990109392
aa(lp613
F6.42863999329921
aF0.010249443796889655
aa(lp614
F2.460132520643601
aF0.2565873111607007
aa(lp615
F-8.791325512857044
aF0.06242480920730911
aa(lp616
F8.530633956593682
aF0.10721930759741197
aa(lp617
F-3.108528782190114
aF0.0033963855999685974
aa(lp618
F-4.0227092759796985
aF-0.1722604442331612
aa(lp619
F-8.670860191305284
aF0.07962730277650039
aa(lp620
F4.018056043514509
aF-0.18437455760830052
aa(lp621
F9.1461062905165
aF0.042498575027508645
aa(lp622
F7.074983093123127
aF0.1058118780233245
aa(lp623
F3.231485908397131
aF-0.021583277827538404
aa(lp624
F-9.485561946552464
aF0.01039672788587002
aa(lp625
F-0.7601002625104663
aF0.924040276589744
aa(lp626
F-4.442186837066897
aF-0.21098508370899904
aa(lp627
F0.821099639900746
aF0.8875440549306299
aa(lp628
F-5.305296639237172
aF-0.15962869852602554
aa(lp629
F7.5764831967263895
aF0.1360637259923501
aa(lp630
F-4.250280649260532
aF-0.21728942081186864
aa(lp631
F3.819520675301188
aF-0.17091726904564117
aa(lp632
F-6.831630171806021
aF0.07045035861410313
aa(lp633
F-3.758404457910009
aF-0.15981483285421136
aa(lp634
F-6.422814658635518
aF0.016025125782083934
aa(lp635
F6.410145860382887
aF0.0053333417566426775
aa(lp636
F4.144943097340512
aF-0.1985482557584816
aa(lp637
F8.04802298112961
aF0.11088449051444296
aa(lp638
F-3.983737890006555
aF-0.20181953649858322
aa(lp639
F1.6367079147438872
aF0.6100642687556878
aa(lp640
F-9.675363688292764
aF-0.0219537075652213
aa(lp641
F4.134654816091896
aF-0.20598450115855527
aa(lp642
F-0.4621287304253858
aF0.968493433619642
aa(lp643
F1.5091213447288752
aF0.6445855621566494
aa(lp644
F6.1094444063003515
aF-0.01662949124267679
aa(lp645
F4.403132638665831
aF-0.22907395581616205
aa(lp646
F4.5598668777925795
aF-0.21958285784044138
aa(lp647
F-8.571186469963676
aF0.08911334153749166
aa(lp648
F4.935216418404194
aF-0.17313558075682062
aa(lp649
F8.857370022815338
aF0.05705404742929147
aa(lp650
F1.4469981344243017
aF0.6788347906368748
aa(lp651
F9.897268537915274
aF-0.04974355892045717
aa(lp652
F4.394475493607924
aF-0.2125580829077789
aa(lp653
F5.896208297908522
aF-0.0723859572823161
aa(lp654
F1.4874942582236095
aF0.6767690362866162
aa(lp655
F4.449949844283887
aF-0.2061568047719352
aa(lp656
F-6.368703476249323
aF0.003536340754988725
aa(lp657
F5.393553332269237
aF-0.14344996542532848
aa(lp658
F5.376930786485065
aF-0.1519660091928335
aa(lp659
F8.228933084290219
aF0.12990511885981607
aa(lp660
F-7.931042054915299
aF0.13262728514735733
aa(lp661
F-3.2254098440388645
aF-0.033395891283839664
aa(lp662
F-7.709067866686466
aF0.13080452971020426
aa(lp663
F-3.7326292165119863
aF-0.1458637458512682
aa(lp664
F1.3286039942877856
aF0.7450273982823852
aa(lp665
F-7.983737162396485
aF0.11902275062847784
aa(lp666
F3.3426388056910525
aF-0.04739417205673902
aa(lp667
F4.880108947072774
aF-0.20514470429658851
aa(lp668
F-3.9092902337125457
aF-0.16618893927562708
aa(lp669
F-8.885310878204962
aF0.05667438955429623
aa(lp670
F-5.344385973018899
aF-0.1563048890013839
aa(lp671
F-2.413875153544116
aF0.272920410087847
aa(lp672
F4.16203016420938
aF-0.22838602990978948
aa(lp673
F-9.582233183176319
aF-0.008381941618678527
aa(lp674
F-9.828556662032993
aF-0.040613023923847996
aa(lp675
F-0.387259009975109
aF0.9770436684342034
aa(lp676
F4.110021298050805
aF-0.2066402654251539
aa(lp677
F8.938158067452385
aF0.04428807924941628
aa(lp678
F5.977773344065145
aF-0.043246927816370365
aa(lp679
F7.815748719590886
aF0.1320037202720248
aa(lp680
F-8.905102857774374
aF0.0682931113694977
aa(lp681
F4.7630598065439855
aF-0.20895400273166476
aa(lp682
F-3.8563173085117652
aF-0.172779207435951
aa(lp683
F-4.586847266321841
aF-0.2253980265084301
aa(lp684
F-8.828642082957128
aF0.07296734334493107
aa(lp685
F5.89913039114994
aF-0.058207623257375544
aa(lp686
F-4.550302808756859
aF-0.20942722059971688
aa(lp687
F9.905641808907777
aF-0.03915855572749104
aa(lp688
F-1.1661671002455662
aF0.7851337167186946
aa(lp689
F-4.875163759593379
aF-0.21499860452159986
aa(lp690
F-6.917319827727448
aF0.08654389901089968
aa(lp691
F1.0991223083468977
aF0.8054508206856948
aa(lp692
F-9.083137080281924
aF0.04650746958305903
aa(lp693
F-3.1112500937317833
aF-0.006315694916911727
aa(lp694
F4.3047123137643375
aF-0.20273591985434208
aa(lp695
F-5.161373497987103
aF-0.18640573867186896
aa(lp696
F8.081078303118879
aF0.12867524558988644
aa(lp697
F6.5999866477456415
aF0.040750724507164604
aa(lp698
F7.629893856562102
aF0.14713208736896927
aa(lp699
F7.491247980017697
aF0.12492548827444111
aa(lp700
F3.0150812018345547
aF0.050144111044572
aa(lp701
F-0.5544883456263143
aF0.9445761114008444
aa(lp702
F-7.757327800644709
aF0.1285346587475754
aa(lp703
F9.531885726152925
aF-0.029165763006541653
aa(lp704
F6.611091086836915
aF0.0459501438309379
aa(lp705
F-9.03520071583632
aF0.05271494986886229
aa(lp706
F5.333505561089353
aF-0.16425311802461143
aa(lp707
F2.3861310295503593
aF0.2828267546912174
aa(lp708
F8.290580726317248
aF0.11284142798870549
aa(lp709
F-2.4699261845340477
aF0.2701781835347944
aa(lp710
F2.287742397675947
aF0.33489445741911306
aa(lp711
F-2.8932602594747863
aF0.08899074621424834
aa(lp712
F5.137377345188527
aF-0.1799026263905601
aa(lp713
F-4.799597789098975
aF-0.21739069480011677
aa(lp714
F0.39674022513882434
aF0.9595787184493718
aa(lp715
F-7.118238524244031
aF0.09329323671906553
aa(lp716
F-9.750440032999636
aF-0.007661842325308296
aa(lp717
F-0.7827303446954978
aF0.9083201845154383
aa(lp718
F-5.597579369872645
aF-0.14372170297734294
aa(lp719
F-7.558489627405742
aF0.13879709390399236
aa(lp720
F0.6358070570124177
aF0.924444297923392
aa(lp721
F-0.6381762087007186
aF0.9255218005927267
aa(lp722
F5.53535531740142
aF-0.1415612457986299
aa(lp723
F-4.855215467746969
aF-0.19702531893162795
aa(lp724
F0.8222378517955935
aF0.911749760038518
aa(lp725
F7.378396779676418
aF0.1258705693337695
aa(lp726
F-1.0430253511504866
aF0.8330302551351206
aa(lp727
F-9.191578920771287
aF0.014938082314487356
aa(lp728
F-7.402274222147788
aF0.12612447317063433
aa(lp729
F2.6638949102965057
aF0.18994138860216883
aa(lp730
F0.02195426074123219
aF1.000928425935662
aa(lp731
F-7.90500605218827
aF0.1407283678316267
aa(lp732
F-6.750904594533429
aF0.06245349691234803
aa(lp733
F-7.356584918342175
aF0.11274339783877463
aa(lp734
F7.732647310154324
aF0.12507066759231164
aa(lp735
F2.6578906064699197
aF0.18386244582175781
aa(lp736
F-8.832854399808701
aF0.06450806136617679
aa(lp737
F-0.5406251426223143
aF0.949358716524096
aa(lp738
F7.4271516291635535
aF0.12491297640884794
aa(lp739
F9.875624445527222
aF-0.0543789929249817
aa(lp740
F9.247320526819177
aF0.0389301847397832
aa(lp741
F-9.685398102959503
aF-0.04498694645549055
aa(lp742
F9.857463944153526
aF-0.05775629121065624
aa(lp743
F-5.236922176836818
aF-0.14053643305801125
aa(lp744
F7.139344970928953
aF0.10269565974558391
aa(lp745
F-0.797099790493391
aF0.899629998084402
aa(lp746
F-8.671869053024261
aF0.08075765806701965
aa(lp747
F-6.6252021027631685
aF0.04042288324879727
aa(lp748
F7.055611566922327
aF0.08780145266903976
aa(lp749
F-6.765329976684957
aF0.06964677590185141
aa(lp750
F-1.4133505132693394
aF0.688791979219827
aa(lp751
F-5.952743510812284
aF-0.06100216655179248
aa(lp752
F2.0912681914454687
aF0.4052324971692103
aa(lp753
F-4.868710772390699
aF-0.20097685438887217
aa(lp754
F-4.750711307912505
aF-0.1964879330154709
aa(lp755
F5.1885342261580565
aF-0.1778689130140765
aa(lp756
F3.4238230597906885
aF-0.07521434042675111
aa(lp757
F1.8697978599955167
aF0.5166447910682337
aa(lp758
F-1.6770852015414572
aF0.6114969936036442
aa(lp759
F-3.636225809168625
aF-0.1289013882025126
aa(lp760
F-4.204622436204593
aF-0.19618382784429717
aa(lp761
F2.5282217645138143
aF0.23092641866333546
aa(lp762
F9.84987703996988
aF-0.04013750104525381
aa(lp763
F1.0471891781742073
aF0.839364839883644
aa(lp764
F4.152762403877514
aF-0.1979861248118545
aa(lp765
F-5.3304312502302125
aF-0.15251539043781337
aa(lp766
F1.647256896085949
aF0.6212578158485118
aa(lp767
F2.609344933788547
aF0.21064547666240485
aa(lp768
F-9.442914326402063
aF0.005918707025087518
aa(lp769
F-0.396367183072055
aF0.9799323896768667
aa(lp770
F-7.155487775629972
aF0.1016648278311287
aa(lp771
F7.616136871492422
aF0.12276697304868178
aa(lp772
F4.610289958967771
aF-0.22982693764942785
aa(lp773
F2.5880206112548265
aF0.20220272800414363
aa(lp774
F4.83326073921411
aF-0.20601515005508042
aa(lp775
F-0.3485714557170656
aF0.9802209022450562
aa(lp776
F-9.127211451773668
aF0.027338448684105746
aa(lp777
F6.891683046571437
aF0.08113208780010288
aa(lp778
F9.384099006822918
aF-0.011114154361536264
aa(lp779
F9.123759493800897
aF0.01581558850152836
aa(lp780
F-7.516632466129762
aF0.12387314489203663
aa(lp781
F-0.8020049997963525
aF0.8828025023031496
aa(lp782
F4.196662072352575
aF-0.20438166483235745
aa(lp783
F9.953959030711125
aF-0.056120323482439595
aa(lp784
F-7.564268412435016
aF0.11877323765369664
aa(lp785
F2.4311016420967118
aF0.2744953420905591
aa(lp786
F-5.356256429800254
aF-0.143888006008931
aa(lp787
F-9.428486594390055
aF0.007814488756247446
aa(lp788
F-9.206341463862104
aF0.03298634408914674
aa(lp789
F1.7816480040017861
aF0.5567865084645812
aa(lp790
F6.606853210609341
aF0.04779505123319665
aa(lp791
F-2.431776788965541
aF0.27540470195871075
aa(lp792
F2.5370839843195085
aF0.2202830329508679
aa(lp793
F3.4103520525328506
aF-0.0712774152470561
aa(lp794
F-5.749379648908841
aF-0.1041333634448313
aa(lp795
F-9.057370335639991
aF0.04908724733117159
aa(lp796
F-7.071506241446157
aF0.07512804019386105
aa(lp797
F5.2995698128130755
aF-0.1499062570472766
aa(lp798
F-8.9041909474561
aF0.05771916969870539
aa(lp799
F-1.635495213868234
aF0.6065234968121133
aa(lp800
F-9.777713404827686
aF-0.031231994019517095
aa(lp801
F6.082954876796283
aF-0.03958469916072788
aa(lp802
F-9.112306187670928
aF0.022784294683888994
aa(lp803
F-5.073802420807841
aF-0.18425915968138962
aa(lp804
F-3.456703354558039
aF-0.08640086083706484
aa(lp805
F-7.856425864874965
aF0.12033188087001444
aa(lp806
F-0.12089388424927172
aF1.0047630053010108
aa(lp807
F-6.187241950804134
aF-0.011548121333346595
aa(lp808
F-8.169562656995037
aF0.11147580697462028
aa(lp809
F-3.858984873495146
aF-0.1482393590407025
aa(lp810
F9.623740900538426
aF-0.010988906504674868
aa(lp811
F-3.4408551156775307
aF-0.08745412140743158
aa(lp812
F-7.992051077312487
aF0.1322242801751666
aa(lp813
F0.9898352526811198
aF0.8334653509759382
aa(lp814
F-1.7408935492628004
aF0.5646140705341492
aa(lp815
F5.236411071584383
aF-0.17941036412083147
aa(lp816
F-0.2139484848444333
aF0.9808233722990639
aa(lp817
F-7.772906210817123
aF0.13126550394409606
aa(lp818
F9.30385698614273
aF0.014340134153443226
aa(lp819
F-1.220620017767832
aF0.7648122611761595
aa(lp820
F-0.6414792782272709
aF0.9421181952415254
aa(lp821
F5.793941897358446
aF-0.08410205962998497
aa(lp822
F9.205989274892048
aF0.029222477372092166
aa(lp823
F-3.0918405983101955
aF0.025423121853132728
aa(lp824
F7.816796383354678
aF0.12672813949074924
aa(lp825
F-8.669812805668705
aF0.08538649312035645
aa(lp826
F-6.762292820949057
aF0.051157826315673983
aa(lp827
F8.11794737696195
aF0.13203296344203622
aa(lp828
F7.038859320841237
aF0.1012969062494846
aa(lp829
F-8.729310534662671
aF0.08009093998692779
aa(lp830
F-5.165364210986576
aF-0.19134743457594625
aa(lp831
F-5.302283236087453
aF-0.15093833098861698
aa(lp832
F1.055075545425236
aF0.8064259553749193
aa(lp833
F4.356059737534077
aF-0.21518490903028234
aa(lp834
F-4.340205455167288
aF-0.21791593121303657
aa(lp835
F-0.5194238049110851
aF0.9587352661605519
aa(lp836
F2.743762076405593
aF0.14292429656176292
aa(lp837
F3.6690452925788364
aF-0.13796881513941261
aa(lp838
F3.6640884142416255
aF-0.14396938320535863
aa(lp839
F-9.013723081535211
aF0.05843777199193986
aa(lp840
F8.641333375554726
aF0.10493107382044425
aa(lp841
F-7.195104441518925
aF0.11066172258683442
aa(lp842
F1.0609095390156593
aF0.8149383499883113
aa(lp843
F-2.330662509342938
aF0.3288237483453293
aa(lp844
F4.838651962056668
aF-0.2192790979849933
aa(lp845
F5.942246225261179
aF-0.05251859365280068
aa(lp846
F-7.769976009601485
aF0.1321825748791022
aa(lp847
F2.3536553821084247
aF0.2856090546963733
aa(lp848
F1.5542007337414532
aF0.655710496869067
aa(lp849
F5.465906047424195
aF-0.14293748075910198
aa(lp850
F4.318667065816717
aF-0.2047078756616972
aa(lp851
F-1.6284090500970212
aF0.6218613804841486
aa(lp852
F-8.231965300350026
aF0.10747076845985339
aa(lp853
F-1.5719843444359167
aF0.6488351645215205
aa(lp854
F2.4966079493141162
aF0.2361362767940341
aa(lp855
F7.512627518748843
aF0.11530462232699007
aa(lp856
F6.956436616157934
aF0.08659720922389665
aa(lp857
F7.1509647830272804
aF0.10936275778339409
aa(lp858
F8.834571260151094
aF0.054272494755587264
aa(lp859
F-1.6898867073646038
aF0.5960013738341177
aa(lp860
F8.146072727581178
aF0.11235879149696557
aa(lp861
F-2.46581704608486
aF0.26377915295916465
aa(lp862
F4.398256167331596
aF-0.21086826022337724
aa(lp863
F0.5019145761008197
aF0.9684425496266671
aa(lp864
F-7.605395693627206
aF0.12710459304354307
aa(lp865
F-6.940927462919568
aF0.06791061805866
aa(lp866
F7.4673474386192815
aF0.1282004852692789
aa(lp867
F-4.329476044745331
aF-0.20517244908835353
aa(lp868
F9.153991524184391
aF0.043449013538711716
aa(lp869
F-3.075946771274527
aF0.00918582254529945
aa(lp870
F-9.975612440881601
aF-0.058177918354093514
aa(lp871
F4.786673490503988
aF-0.2074859382247599
aa(lp872
F-2.954041097519333
aF0.08049845640438949
aa(lp873
F-4.748955507561159
aF-0.2062528668621188
aa(lp874
F-7.592214931315217
aF0.13636880737851975
aa(lp875
F8.722950516682872
aF0.0839007124554018
aa(lp876
F-0.3165071759511271
aF0.974566461842302
aa(lp877
F0.5838986298814426
aF0.9444504876769328
aa(lp878
F0.832632413484582
aF0.8856869771067684
aa(lp879
F9.191627690680903
aF0.032688393429582074
aa(lp880
F-5.730722566541415
aF-0.09082339740046814
aa(lp881
F6.60847129059486
aF0.052400537219317915
aa(lp882
F7.792873259419878
aF0.12846221189052745
aa(lp883
F4.636412635253782
aF-0.2263458566716467
aa(lp884
F-3.427535435266485
aF-0.08052395230997998
aa(lp885
F9.212094721327126
aF0.031511649790626116
aa(lp886
F-1.6508691688982893
aF0.6008494993757414
aa(lp887
F2.57979486030983
aF0.20728372181446553
aa(lp888
F-4.847997139317788
aF-0.18245823806452835
aa(lp889
F0.6332784747322222
aF0.9226824518139325
aa(lp890
F1.0449046116659453
aF0.8033431484281596
aa(lp891
F5.775031350233661
aF-0.07181348598154702
aa(lp892
F-2.5497513279602675
aF0.21183074335788657
aa(lp893
F-2.544732754018866
aF0.2223683805568703
aa(lp894
F-6.994075224059076
aF0.1004548032289385
aa(lp895
F3.34797874879661
aF-0.06147217946131738
aa(lp896
F3.7075432934891968
aF-0.1453675468669214
aa(lp897
F6.169933113227142
aF7.918517758624677e-05
aa(lp898
F-2.8361007288160707
aF0.09341312747060822
aa(lp899
F6.504116182915066
aF0.04273443659516321
aa(lp900
F7.991125721625224
aF0.11716634559635736
aa(lp901
F-2.274993937073093
aF0.34165643226860687
aa(lp902
F-4.14928680731842
aF-0.20932183279460476
aa(lp903
F-4.713378117627389
aF-0.20607538774895848
aa(lp904
F-6.373779848957
aF0.002105426804458679
aa(lp905
F-8.163192182808281
aF0.11674401682652337
aa(lp906
F-9.1109219006601
aF0.027618974301029896
aa(lp907
F-6.393377758656085
aF0.022552317144967554
aa(lp908
F3.522384519632112
aF-0.09461113256005838
aa(lp909
F-6.691628876650723
aF0.040354227084846706
aa(lp910
F-4.262140783985069
aF-0.20702109745045802
aa(lp911
F-6.417161014960597
aF0.002766324791446565
aa(lp912
F-1.2477317639242678
aF0.7529672835442134
aa(lp913
F9.555807061837033
aF-0.011856074651715249
aa(lp914
F-4.00984277798533
aF-0.18406693915730032
aa(lp915
F2.9937629745933503
aF0.04942636150917956
aa(lp916
F4.6661752555356735
aF-0.2028238684561828
aa(lp917
F-8.52141427107578
aF0.06680803257402414
aa(lp918
F7.993309040327034
aF0.13420307326131864
aa(lp919
F7.368609251271138
aF0.11733961682436377
aa(lp920
F0.1827139393105135
aF0.9803357821677422
aa(lp921
F-2.443147402367578
aF0.2626476725889571
aa(lp922
F7.558678152262608
aF0.12682859963668938
aa(lp923
F6.295573468054748
aF-0.01119053617024686
aa(lp924
F2.995648844587537
aF0.05954804373862563
aa(lp925
F-7.939213883646237
aF0.10524926049832603
aa(lp926
F-3.31399111382213
aF-0.05312906293728886
aa(lp927
F7.881847318871845
aF0.12910265598059373
aa(lp928
F-8.279829783481167
aF0.10484623476880588
aa(lp929
F0.91220416264151
aF0.8548050867848307
aa(lp930
F-1.7955899187034685
aF0.5502457753368156
aa(lp931
F-9.240679644337797
aF0.0455357497032858
aa(lp932
F6.649117006644193
aF0.0687727594636438
aa(lp933
F6.556451567941956
aF0.04099312298269668
aa(lp934
F3.543150242796912
aF-0.09672134308028309
aa(lp935
F7.360158250623858
aF0.12215695201674052
aa(lp936
F0.6599652579048421
aF0.9464099841304096
aa(lp937
F-6.274897138935877
aF0.013259149260917487
aa(lp938
F-9.556811978020583
aF-0.000737037773194114
aa(lp939
F-9.992928497993258
aF-0.0480255768018827
aa(lp940
F4.76029325754876
aF-0.20858977628811307
aa(lp941
F1.887614504608166
aF0.507859562537243
aa(lp942
F9.126752756428061
aF0.027436525731753484
aa(lp943
F3.666435049874675
aF-0.1436270905659788
aa(lp944
F-3.5858210353634075
aF-0.1087456441252721
aa(lp945
F-3.976061731822476
aF-0.19017338587633334
aa(lp946
F-4.604803157257688
aF-0.21635067549865214
aa(lp947
F7.467955091266841
aF0.12105817346131152
aa(lp948
F9.604149058991617
aF-0.033050623645442444
aa(lp949
F4.226109069415649
aF-0.22933673168114288
aa(lp950
F7.164203314431187
aF0.10690288764870395
aa(lp951
F-9.86023251768145
aF-0.04348324916211292
aa(lp952
F6.105769014667231
aF-0.0276291692760132
aa(lp953
F9.324996641522482
aF-0.010738475044881552
aa(lp954
F-6.781230934079947
aF0.06088416140110166
aa(lp955
F1.3457309568271256
aF0.7183999397454139
aa(lp956
F-4.350590417664579
aF-0.21632424757210109
aa(lp957
F-3.983459101313218
aF-0.18222416686881507
aa(lp958
F-2.856487164071895
aF0.11458067537811539
aa(lp959
F-9.13541503542035
aF0.03853140266258531
aa(lp960
F3.8405980671971722
aF-0.15615860984709623
aa(lp961
F0.9871358313195167
aF0.8371783759703515
aa(lp962
F0.10236918893382096
aF1.0100290294416812
aa(lp963
F-7.8907735704637405
aF0.09560358344746485
aa(lp964
F8.725212154958871
aF0.07040176239033843
aa(lp965
F2.6499329205394133
aF0.17595892171847727
aa(lp966
F-9.093237401333809
aF0.022857850130871916
aa(lp967
F5.311276318838827
aF-0.1387976380736307
aa(lp968
F-1.3717662672851834
aF0.712280656999549
aa(lp969
F8.247231638672186
aF0.111846030523145
aa(lp970
F-3.7453286032654542
aF-0.16843201816887002
aa(lp971
F7.444973658461073
aF0.12594601815566125
aa(lp972
F-0.43055872157996156
aF0.990730144241127
aa(lp973
F9.592852861540752
aF-0.012835910098585247
aa(lp974
F2.585252887651464
aF0.20021087642977897
aa(lp975
F-0.07760757574022037
aF1.0158596242836746
aa(lp976
F8.415557374662818
aF0.09512346285213504
aa(lp977
F4.54911392599001
aF-0.21658422849816647
aa(lp978
F-4.560797244988343
aF-0.2237419024292139
aa(lp979
F8.371833424883203
aF0.11719182204974701
aa(lp980
F2.3527484645796086
aF0.2963356107807112
aa(lp981
F-9.506315757249604
aF0.0028917910461415744
aa(lp982
F1.1386433109110072
aF0.8075535996148088
aa(lp983
F-1.453809417659146
aF0.6986853744533608
aa(lp984
F-4.224874020989353
aF-0.2093934876949167
aa(lp985
F9.938594243656844
aF-0.0645767959287647
aa(lp986
F-8.445633100231944
aF0.09686483389352699
aa(lp987
F4.69852536019274
aF-0.22030253942232567
aa(lp988
F-2.235771773998061
aF0.3490291237686454
aa(lp989
F3.140648149344031
aF0.008889453900027221
aa(lp990
F-1.5767390792402445
aF0.6384346201361324
aa(lp991
F7.367497403379527
aF0.11497637310865447
aa(lp992
F7.6146914358164
aF0.12596791674169122
aa(lp993
F0.032723780050197604
aF0.9994903943542596
aa(lp994
F-4.177632713683
aF-0.2166310121937762
aa(lp995
F-6.07673934892365
aF-0.032994858982046536
aa(lp996
F-2.0379120986093335
aF0.4337134440773376
aa(lp997
F-1.9994441369905438
aF0.4432116863047757
aa(lp998
F-9.021225445785454
aF0.03946003826624022
aa(lp999
F9.137447142907252
aF0.014220481867261957
aa(lp1000
F-1.92900494602684
aF0.4821907424238394
aa.