(lp0
(lp1
F2.1725584863109724
aF2.0673861446030366
aI-1
aa(lp2
F0.6294982183225553
aF0.6629505953989625
aI1
aa(lp3
F1.1037826047456052
aF1.7697524621253333
aI1
aa(lp4
F1.3391652394798568
aF1.5697845226155205
aI1
aa(lp5
F2.168635749835808
aF1.8920940138796778
aI-1
aa(lp6
F0.1713822073890101
aF1.2013942553142594
aI1
aa(lp7
F0.13103637381317879
aF1.0691242018208684
aI1
aa(lp8
F0.19869938058069814
aF1.4744192058816816
aI1
aa(lp9
F0.8798356966737005
aF1.0242461688930014
aI1
aa(lp10
F2.0782632321034162
aF1.6357041647862673
aI-1
aa(lp11
F2.487355381325132
aF2.6832209300765695
aI-1
aa(lp12
F2.2584498136939426
aF2.9565070799812334
aI-1
aa(lp13
F1.092467733982728
aF1.2272443630135135
aI1
aa(lp14
F2.9114368444462437
aF1.8561766873224932
aI-1
aa(lp15
F1.136689157606242
aF1.9805175342039334
aI-1
aa(lp16
F2.744017094685325
aF2.077449066159123
aI-1
aa(lp17
F2.2857836856706992
aF2.079638348449716
aI-1
aa(lp18
F1.3663473361612999
aF2.1063927537838407
aI-1
aa(lp19
F1.0092674020542947
aF0.572682385447101
aI1
aa(lp20
F0.9968679349632209
aF0.5037595120623592
aI1
aa(lp21
F1.03351924679086
aF1.7652752520475765
aI1
aa(lp22
F1.2875098413976378
aF1.8195585231339577
aI1
aa(lp23
F0.8281324207173406
aF1.9110643018751745
aI-1
aa(lp24
F3.1371832816462626
aF2.1927540908365875
aI-1
aa(lp25
F2.1859872099691526
aF1.9042680841130215
aI-1
aa(lp26
F1.9333715015701156
aF2.4197857944901062
aI-1
aa(lp27
F1.1266808044397087
aF0.8379639132576323
aI1
aa(lp28
F1.377603035707685
aF2.7644059141542074
aI-1
aa(lp29
F2.6010138863487646
aF1.6345547579022917
aI-1
aa(lp30
F0.5436271976488833
aF0.9644837395429886
aI1
aa(lp31
F0.2879630443414466
aF0.653516271045709
aI1
aa(lp32
F0.1947146955916299
aF1.910717841450115
aI1
aa(lp33
F1.8599299941461644
aF1.6307942830598408
aI-1
aa(lp34
F0.8040410156426971
aF0.5646336180939582
aI1
aa(lp35
F2.9133275603950044
aF1.7277160020839049
aI-1
aa(lp36
F1.6941074175264463
aF1.88563065509604
aI1
aa(lp37
F1.02849316405678
aF0.15935158818241146
aI1
aa(lp38
F2.2179526243249637
aF2.524568222663686
aI-1
aa(lp39
F2.2517767616625832
aF0.6742087341875399
aI1
aa(lp40
F2.586665091633253
aF2.50217777788377
aI-1
aa(lp41
F0.8544609584357838
aF1.0854129966449286
aI1
aa(lp42
F0.963553802816022
aF0.42905436446078504
aI1
aa(lp43
F2.3266944438686274
aF1.9346186861466905
aI-1
aa(lp44
F1.2727369764093321
aF1.2816223700093725
aI-1
aa(lp45
F3.0662042124436257
aF2.3149550947900193
aI-1
aa(lp46
F1.3700062585147168
aF2.1213093584698757
aI-1
aa(lp47
F1.4644975233317699
aF1.4290654108892014
aI-1
aa(lp48
F0.922639897263209
aF1.372541917203104
aI1
aa(lp49
F1.5862601784344772
aF-0.517780525057947
aI1
aa(lp50
F1.6820142385167074
aF0.9405611943007426
aI-1
aa(lp51
F1.5498064932820093
aF1.8032839782464265
aI1
aa(lp52
F1.3281911146612195
aF0.7916976106253568
aI1
aa(lp53
F1.9003896892586831
aF1.7209369917654451
aI-1
aa(lp54
F1.0080150762553477
aF0.8281281928773849
aI1
aa(lp55
F2.799753411167531
aF1.9976873595145683
aI-1
aa(lp56
F2.3600532975920503
aF2.4081155571527018
aI-1
aa(lp57
F0.8365369766624022
aF1.2053184072904033
aI1
aa(lp58
F2.017214703931952
aF2.2975900634368505
aI-1
aa(lp59
F0.7530386959349892
aF1.318213409833464
aI1
aa(lp60
F3.074084692338734
aF2.049846327551526
aI-1
aa(lp61
F2.399635381752159
aF1.7494911409556626
aI-1
aa(lp62
F1.4943113435771367
aF1.9945924045998265
aI1
aa(lp63
F1.6955603516294604
aF1.5731090250728883
aI-1
aa(lp64
F2.251326019486697
aF1.976388303791895
aI-1
aa(lp65
F0.9097750549285852
aF1.5456118059431874
aI1
aa(lp66
F0.3472764187633508
aF1.3314456495577653
aI1
aa(lp67
F3.0384206418576136
aF1.8165420122546434
aI-1
aa(lp68
F1.1535606010031276
aF1.2175870049253739
aI1
aa(lp69
F1.8606634259802743
aF2.4587720606761008
aI-1
aa(lp70
F1.1370107089755652
aF1.6893278922061787
aI1
aa(lp71
F0.7272866592642409
aF1.0340407247643928
aI-1
aa(lp72
F1.6198247904794256
aF1.14764784625554
aI1
aa(lp73
F2.4459234819218088
aF1.5904752132338038
aI-1
aa(lp74
F0.8069512245139651
aF0.30388255072134973
aI1
aa(lp75
F1.2541629553249105
aF0.45162537538639647
aI1
aa(lp76
F1.3077179152020495
aF2.1406730268741487
aI-1
aa(lp77
F1.1473861497404667
aF1.3063948095001576
aI1
aa(lp78
F1.6202367707313068
aF2.263513870062847
aI-1
aa(lp79
F1.237814567482162
aF0.604372275969935
aI1
aa(lp80
F1.0846748584421606
aF0.6603818848753729
aI1
aa(lp81
F2.0746766137945776
aF1.492289169739227
aI-1
aa(lp82
F1.2558509616969142
aF0.4862666721424499
aI1
aa(lp83
F1.282175647101393
aF0.7465012006767957
aI1
aa(lp84
F1.758570273523808
aF2.1074732640491596
aI-1
aa(lp85
F2.6407143935225896
aF1.7417865919443385
aI-1
aa(lp86
F0.6398048764139278
aF0.2825814336431236
aI1
aa(lp87
F1.561210765436255
aF0.9277220513733362
aI1
aa(lp88
F0.9502558570437257
aF2.04988847992776
aI1
aa(lp89
F2.531613024710407
aF2.1798552285445068
aI-1
aa(lp90
F1.2142476764869663
aF1.6739340495375763
aI1
aa(lp91
F1.5416141303771795
aF-0.06629298542604745
aI1
aa(lp92
F0.5799986239917896
aF1.1353102535727801
aI1
aa(lp93
F2.1015001201521657
aF2.388728830668889
aI-1
aa(lp94
F0.8221860684412904
aF0.6410723151971675
aI1
aa(lp95
F1.1390634157780504
aF1.0662693589918895
aI1
aa(lp96
F2.653325489928962
aF1.840284718254069
aI-1
aa(lp97
F1.782072095027171
aF2.351405666396575
aI-1
aa(lp98
F1.6894745375111913
aF3.1727742083140775
aI-1
aa(lp99
F2.5049164661403296
aF2.599421346903841
aI-1
aa(lp100
F1.316667486409162
aF1.9828416883529192
aI-1
aa.