(lp0
(lp1
F-2.609362453316275
aF0.18910681478154542
aa(lp2
F8.997756618634568
aF0.04482781439266208
aa(lp3
F2.520303750866578
aF0.22422658880433013
aa(lp4
F5.930191754969982
aF-0.07008705928483601
aa(lp5
F-9.847958474054222
aF-0.025600578395183697
aa(lp6
F-4.746102528682961
aF-0.2020912534942246
aa(lp7
F7.429500094224366
aF0.1261547865836017
aa(lp8
F3.8300134305198306
aF-0.16657720706868678
aa(lp9
F-7.194091663164337
aF0.10631986383741386
aa(lp10
F-7.559606906895802
aF0.1320289794624269
aa(lp11
F0.7540505855125907
aF0.9170896175643278
aa(lp12
F-3.603721717258206
aF-0.13113548122282537
aa(lp13
F4.8814758259681525
aF-0.2098255990238541
aa(lp14
F0.06626585737487822
aF0.982970616836119
aa(lp15
F-0.8972817996040376
aF0.8634535310090053
aa(lp16
F-9.888181483650074
aF-0.03800030074198763
aa(lp17
F0.6607814370369613
aF0.9237510552847019
aa(lp18
F-2.9930383364330844
aF0.0390866339580701
aa(lp19
F3.9748623821146865
aF-0.1973813127523309
aa(lp20
F-8.851002917792549
aF0.058081465492882796
aa(lp21
F1.533988383842292
aF0.6519901651659095
aa(lp22
F-2.69859607666179
aF0.1601788064135104
aa(lp23
F-0.44563049201382654
aF0.9712896662140179
aa(lp24
F-2.4312922534468147
aF0.25653583232599664
aa(lp25
F-1.5672862184879062
aF0.6297579444745589
aa(lp26
F-3.6636082138218073
aF-0.13602936701210944
aa(lp27
F-2.282546947804147
aF0.33435791260292763
aa(lp28
F-6.528792107368913
aF0.03655291768544691
aa(lp29
F-7.718225840722295
aF0.12638167200405295
aa(lp30
F-5.526266080131692
aF-0.11959131854703699
aa(lp31
F0.9243456487455539
aF0.8554211565673261
aa(lp32
F-2.795187206042005
aF0.10787769701277128
aa(lp33
F5.61450947947673
aF-0.11038139145829622
aa(lp34
F2.0460798140779435
aF0.4275774401360936
aa(lp35
F-1.1836932253193044
aF0.7884801936754433
aa(lp36
F3.3115016534331474
aF-0.05105867711045135
aa(lp37
F7.210106213455244
aF0.11057764625950184
aa(lp38
F3.014618980412923
aF0.05501452157165071
aa(lp39
F3.835225427602218
aF-0.16308748946126703
aa(lp40
F-0.169696007827282
aF1.000401339066316
aa(lp41
F-7.251524239063755
aF0.10613354419607306
aa(lp42
F-6.342210605366015
aF-0.009258070450330589
aa(lp43
F-1.6066715860706857
aF0.6178762495048209
aa(lp44
F-7.537200095523449
aF0.10869691665437697
aa(lp45
F2.877436233706181
aF0.06795322175115337
aa(lp46
F-7.1421401491773455
aF0.10117055092770474
aa(lp47
F-8.382909570187799
aF0.10636711323734142
aa(lp48
F1.4609801365502584
aF0.6873773080471139
aa(lp49
F-7.538361299417648
aF0.12651123406038098
aa(lp50
F-6.463196704735362
aF0.018928450547824015
aa(lp51
F-3.7911283089513947
aF-0.16526261926071262
aa(lp52
F8.513174020462156
aF0.09902718271341635
aa(lp53
F3.9688551318258583
aF-0.18935942413302873
aa(lp54
F-8.933180345664036
aF0.05977111094950152
aa(lp55
F-0.14822769312673678
aF1.0061270435971847
aa(lp56
F1.5492785908340814
aF0.6525287651747154
aa(lp57
F-2.488993096169356
aF0.24501448139741602
aa(lp58
F5.51729439292718
aF-0.10610943458687123
aa(lp59
F-8.221378054702246
aF0.10706801917573738
aa(lp60
F2.406642486173764
aF0.26658338009875043
aa(lp61
F9.656230137655637
aF-0.021407517428298287
aa(lp62
F-7.459294684699989
aF0.12732698022990158
aa(lp63
F-9.55339309296267
aF-0.02944647021024303
aa(lp64
F0.5583164650338261
aF0.9467416707128568
aa(lp65
F2.880041614602751
aF0.09330620942334993
aa(lp66
F7.834549218906133
aF0.1253255976761919
aa(lp67
F-7.607508794150972
aF0.13031718562510738
aa(lp68
F0.5565154572733082
aF0.9382429354681944
aa(lp69
F-0.8531243377866851
aF0.8873592423756883
aa(lp70
F-6.903232726406994
aF0.0838452066741283
aa(lp71
F-9.498159075722516
aF-0.01892760278532991
aa(lp72
F-8.19691752523033
aF0.1277368800248918
aa(lp73
F1.9969191237333703
aF0.45730402469448345
aa(lp74
F-5.176703098034611
aF-0.18633403753479946
aa(lp75
F-8.364230025735983
aF0.1145295903396572
aa(lp76
F-0.6805140368442082
aF0.919980273317689
aa(lp77
F2.88906046202397
aF0.0916955793811925
aa(lp78
F1.0473178602343296
aF0.8346843153441216
aa(lp79
F-9.467931478660699
aF0.003319745392313325
aa(lp80
F-8.686003743305804
aF0.06220680800447063
aa(lp81
F4.29117816191579
aF-0.19387220026519786
aa(lp82
F-6.178929989814526
aF-0.021141717568689995
aa(lp83
F-0.7480737567945095
aF0.9122640042843017
aa(lp84
F6.098767339994183
aF-0.01855645476626895
aa(lp85
F5.134238971699638
aF-0.1743644583658293
aa(lp86
F1.4795606388810931
aF0.6699261198388149
aa(lp87
F-1.7858536314422828
aF0.5465982675160193
aa(lp88
F2.6164746204969873
aF0.18123374383294255
aa(lp89
F-7.348251885617774
aF0.1075607734016474
aa(lp90
F0.9951962986835952
aF0.8362838869429962
aa(lp91
F1.3298532039266515
aF0.7385527399750768
aa(lp92
F8.478153916658442
aF0.08800419939841311
aa(lp93
F-8.831198792751294
aF0.05857815001711686
aa(lp94
F8.066919592405103
aF0.13217398177126954
aa(lp95
F0.22292034165466745
aF1.0033806972361454
aa(lp96
F6.14613718015384
aF-0.01758243701909126
aa(lp97
F-0.7628069052136794
aF0.9112429816306961
aa(lp98
F-2.39327899278289
aF0.2773336832354275
aa(lp99
F-7.043737669078398
aF0.09969272897049383
aa(lp100
F4.847111246970222
aF-0.1963770798530306
aa.