(lp0
(lp1
F2.493331007128189
aF2.475639996691245
aI-1
aa(lp2
F2.786258521231662
aF2.930385201944464
aI-1
aa(lp3
F1.722436800478369
aF1.567240558708566
aI1
aa(lp4
F3.102556970469433
aF2.961394676474143
aI-1
aa(lp5
F1.2358070039631226
aF1.5513100667710003
aI1
aa(lp6
F2.264534199433399
aF3.340272526550683
aI-1
aa(lp7
F1.0554851834642567
aF1.7615830536536747
aI1
aa(lp8
F2.8327724741613425
aF3.5880110911748146
aI-1
aa(lp9
F2.6613641266122006
aF3.0823862491413436
aI-1
aa(lp10
F2.5277043606647673
aF3.6213162924346514
aI-1
aa(lp11
F2.0370164723309228
aF0.41596373778232765
aI1
aa(lp12
F1.1342950769692697
aF1.251342497238146
aI1
aa(lp13
F3.000491566831579
aF2.8964610804689452
aI-1
aa(lp14
F0.4885030224051429
aF1.0671679315098501
aI1
aa(lp15
F2.954415728040098
aF2.5014416578553234
aI-1
aa(lp16
F0.9976724710089837
aF1.2509561190043779
aI1
aa(lp17
F0.5459225455756789
aF1.2263695243052644
aI1
aa(lp18
F0.9322747941996055
aF1.069412929576885
aI1
aa(lp19
F1.1565479914103478
aF1.0640555781397871
aI1
aa(lp20
F3.026216919361858
aF3.0777551409990656
aI-1
aa(lp21
F1.0591913965735875
aF1.1229468491101349
aI1
aa(lp22
F1.0221075313865395
aF1.1916759508225532
aI1
aa(lp23
F3.560857117775668
aF4.387234775829455
aI-1
aa(lp24
F1.2732638043887368
aF1.1169179381164442
aI1
aa(lp25
F0.25219111649819925
aF1.1529405646089121
aI1
aa(lp26
F2.885589861746921
aF3.261837682854751
aI-1
aa(lp27
F0.3026151716091301
aF1.0672421389356161
aI1
aa(lp28
F3.0273551552326827
aF2.339544290376118
aI-1
aa(lp29
F1.0663433054051725
aF0.4502910688596241
aI1
aa(lp30
F2.5140936658206394
aF2.5760836184159115
aI-1
aa(lp31
F3.296485027273425
aF1.8727100215930794
aI-1
aa(lp32
F1.4119143924730244
aF1.0465171991655553
aI1
aa(lp33
F3.707840771320637
aF3.5120389638811287
aI-1
aa(lp34
F0.7533336977798264
aF1.1907473436561864
aI1
aa(lp35
F2.187676263100557
aF3.5702744004616545
aI-1
aa(lp36
F0.43802810157895433
aF2.1037940608806225
aI1
aa(lp37
F1.2750570346959487
aF0.8100517639930149
aI1
aa(lp38
F0.7759999495072725
aF1.520493256692991
aI1
aa(lp39
F1.056089277686983
aF1.4656058204441522
aI1
aa(lp40
F2.7967846254486495
aF3.6816029646407857
aI-1
aa(lp41
F2.9111537770641482
aF3.7833839191955096
aI-1
aa(lp42
F0.45569569098295004
aF0.8704971621077175
aI1
aa(lp43
F3.2536853716115086
aF2.4597896448640846
aI-1
aa(lp44
F0.9346182787312008
aF1.929364610820107
aI1
aa(lp45
F2.7164660066471273
aF2.6755754343821314
aI-1
aa(lp46
F1.2026513370960268
aF0.8039390960460863
aI1
aa(lp47
F0.6850810435744112
aF1.3100616998073062
aI1
aa(lp48
F3.094903070650969
aF3.1052461844622306
aI-1
aa(lp49
F3.492875476683857
aF3.1572128868147127
aI-1
aa(lp50
F1.8513603718873592
aF1.7460264388711468
aI1
aa(lp51
F3.7836994160119444
aF3.0655439594581413
aI-1
aa(lp52
F3.56178090965523
aF2.98164683332185
aI-1
aa(lp53
F0.8318354330940536
aF0.8400003984380597
aI1
aa(lp54
F0.526345602701901
aF1.1429481186693682
aI1
aa(lp55
F1.2036615635861114
aF1.805278555421018
aI1
aa(lp56
F1.0698777672881528
aF2.031122026399383
aI1
aa(lp57
F0.2786405659790737
aF1.0662783864283154
aI1
aa(lp58
F3.332322030971686
aF3.4244668683838917
aI-1
aa(lp59
F1.2943809068742465
aF1.1269813866119136
aI1
aa(lp60
F3.291582862789282
aF2.1367068406262897
aI-1
aa(lp61
F3.1254684589204813
aF3.3355779964494765
aI-1
aa(lp62
F0.6531401508503234
aF0.4002957307368822
aI1
aa(lp63
F3.742015121968269
aF2.8810632819405804
aI-1
aa(lp64
F2.088025943971673
aF3.0713821301969912
aI-1
aa(lp65
F3.186339240178119
aF3.591408997934766
aI-1
aa(lp66
F2.102264458340907
aF3.1033144789897618
aI-1
aa(lp67
F2.5246353555074528
aF2.4252807003602577
aI-1
aa(lp68
F4.0343224286435415
aF3.3660615145073356
aI-1
aa(lp69
F3.159419156093886
aF2.924545132874106
aI-1
aa(lp70
F1.3524826434331598
aF0.516858420265516
aI1
aa(lp71
F1.0385107320771962
aF0.5533580439813894
aI1
aa(lp72
F2.2768242211320193
aF2.873778978492019
aI-1
aa(lp73
F0.9665831572986712
aF1.6255003054362134
aI1
aa(lp74
F0.6576919491675538
aF0.40040990759302686
aI1
aa(lp75
F0.5841146220814324
aF-0.20728041964828137
aI1
aa(lp76
F0.2958364382045271
aF1.6249662363000004
aI1
aa(lp77
F1.6304742324502364
aF1.628492450502467
aI1
aa(lp78
F3.0420520825248256
aF3.534391057367052
aI-1
aa(lp79
F3.4070045814337577
aF3.217012995339612
aI-1
aa(lp80
F2.952126121987721
aF3.418203383287347
aI-1
aa(lp81
F3.465801886853856
aF2.1078984795897555
aI-1
aa(lp82
F1.0194902740885181
aF1.0483158894092295
aI1
aa(lp83
F2.993449251559699
aF3.37981405276384
aI-1
aa(lp84
F1.1386768251213957
aF2.102988811003172
aI1
aa(lp85
F0.7468964138646448
aF0.5237707679188781
aI1
aa(lp86
F3.5947589925770282
aF2.2651341478076996
aI-1
aa(lp87
F1.095878985027634
aF0.7482497478453701
aI1
aa(lp88
F3.397663023768222
aF3.7677649449069675
aI-1
aa(lp89
F0.26445390866635765
aF1.0498795891058972
aI1
aa(lp90
F1.0305813294154247
aF1.287319709019639
aI1
aa(lp91
F2.175168533823334
aF2.391272305386532
aI-1
aa(lp92
F1.6191044388622715
aF0.7638776701867654
aI1
aa(lp93
F2.440083491964349
aF2.607588298847181
aI-1
aa(lp94
F3.2449294463558283
aF2.548738874288766
aI-1
aa(lp95
F1.2266596722996876
aF1.2162870810835325
aI1
aa(lp96
F2.992680322774572
aF2.70406013825414
aI-1
aa(lp97
F2.1005092086378334
aF2.7987835563397696
aI-1
aa(lp98
F1.8794045238284636
aF0.4590870884088889
aI1
aa(lp99
F2.7618663688071456
aF3.0636454244770066
aI-1
aa(lp100
F3.072998247904006
aF3.447984136841684
aI-1
aa.